; Function Attrs: nounwind uwtable
define noalias nonnull ptr @l_Lean_Compiler_LCNF_normArgs___at_Lean_Compiler_LCNF_normCodeImp___spec__2___rarg(i8 noundef zeroext %0, ptr noundef %1, ptr noundef %2, ptr readnone captures(none) %3, ptr readnone captures(none) %4, ptr readnone captures(none) %5, ptr readnone captures(none) %6, ptr noundef %7) local_unnamed_addr #2 {
  tail call void @lean_inc_heartbeat() #6
  %9 = tail call noalias ptr @mi_malloc_small(i64 noundef 40) #6
  %10 = icmp eq ptr %9, null
  br i1 %10, label %11, label %l___private_Lean_Compiler_LCNF_CompilerM_0__Lean_Compiler_LCNF_normArgsImp.exit

11:                                               ; preds = %8
  tail call void @lean_internal_panic_out_of_memory() #7
  unreachable

l___private_Lean_Compiler_LCNF_CompilerM_0__Lean_Compiler_LCNF_normArgsImp.exit: ; preds = %8
  %12 = zext i8 %0 to i64
  %13 = shl nuw nsw i64 %12, 1
  %14 = or disjoint i64 %13, 1
  %15 = inttoptr i64 %14 to ptr
  %16 = getelementptr inbounds nuw i8, ptr %9, i64 4
  store i32 1, ptr %9, align 4, !tbaa !8
  store i32 -184549336, ptr %16, align 4
  %17 = getelementptr inbounds nuw i8, ptr %9, i64 8
  store ptr @l___private_Lean_Compiler_LCNF_CompilerM_0__Lean_Compiler_LCNF_normArgsImp___lambda__1___boxed, ptr %17, align 8, !tbaa !4
  %18 = getelementptr inbounds nuw i8, ptr %9, i64 16
  store i16 3, ptr %18, align 8, !tbaa !12
  %19 = getelementptr inbounds nuw i8, ptr %9, i64 18
  store i16 2, ptr %19, align 2, !tbaa !12
  %20 = getelementptr inbounds nuw i8, ptr %9, i64 24
  store ptr %2, ptr %20, align 8, !tbaa !4
  %21 = getelementptr inbounds nuw i8, ptr %9, i64 32
  store ptr %15, ptr %21, align 8, !tbaa !4
  %22 = tail call ptr @l_Array_mapMono(ptr noundef nonnull inttoptr (i64 1 to ptr)) #6
  %23 = tail call ptr @lean_apply_2(ptr noundef %22, ptr noundef %1, ptr noundef nonnull %9) #6
  tail call void @lean_inc_heartbeat() #6
  %24 = tail call noalias ptr @mi_malloc_small(i64 noundef 24) #6
  %25 = icmp eq ptr %24, null
  br i1 %25, label %26, label %lean_alloc_ctor.exit

26:                                               ; preds = %l___private_Lean_Compiler_LCNF_CompilerM_0__Lean_Compiler_LCNF_normArgsImp.exit
  tail call void @lean_internal_panic_out_of_memory() #7
  unreachable

lean_alloc_ctor.exit:                             ; preds = %l___private_Lean_Compiler_LCNF_CompilerM_0__Lean_Compiler_LCNF_normArgsImp.exit
  %27 = getelementptr inbounds nuw i8, ptr %24, i64 4
  store i32 1, ptr %24, align 4, !tbaa !8
  store i32 131096, ptr %27, align 4
  %28 = getelementptr inbounds nuw i8, ptr %24, i64 8
  store ptr %23, ptr %28, align 8, !tbaa !4
  %29 = getelementptr inbounds nuw i8, ptr %24, i64 16
  store ptr %7, ptr %29, align 8, !tbaa !4
  ret ptr %24
}